target datalayout = "e-m:e-p270:32:32-p271:32:32-p272:64:64-i64:64-i128:128-f80:128-n8:16:32:64-S128"
target triple = "x86_64-pc-linux-gnu"

%struct.archive_read = type { %struct.archive, ptr, i32, i64, i64, %struct.archive_read_client, [16 x %struct.archive_read_filter_bidder], ptr, i32, i64, i32, i32, [16 x %struct.archive_format_descriptor], ptr, ptr, ptr, %struct.anon }
%struct.archive = type { i32, i32, ptr, i32, ptr, i32, i32, ptr, %struct.archive_string, ptr, i32, i32, ptr, ptr, i64, i64, i64, i8, i64 }
%struct.archive_string = type { ptr, i64, i64 }
%struct.archive_read_client = type { ptr, ptr, ptr, ptr, ptr, ptr, i32, i32, i64, ptr }
%struct.archive_read_filter_bidder = type { ptr, ptr, ptr }
%struct.archive_format_descriptor = type { ptr, ptr, ptr, ptr, ptr, ptr, ptr, ptr, ptr, ptr, ptr }
%struct.anon = type { ptr, ptr, i32, ptr, ptr }
%struct.zip = type { %struct.archive_string, i64, i64, i64, i64, i32, ptr, %struct.archive_rb_tree, %struct.archive_rb_tree, i64, ptr, i64, i64, i64, i64, ptr, i8, i8, i8, ptr, i64, %struct.z_stream_s, i8, %struct.lzma_stream, i8, %struct.bz_stream, i8, ptr, i8, %struct.IByteIn, i64, %struct.CPpmd8, i8, i8, ptr, ptr, ptr, i32, i32, i8, ptr, ptr, i64, i64, i64, %struct.trad_enc_ctx, i8, %struct.archive_crypto_ctx, i8, ptr, i8, i32, i32, i32, i32, i32, i32, i32, ptr, ptr, ptr }
%struct.archive_rb_tree = type { ptr, ptr }
%struct.z_stream_s = type { ptr, i32, i64, ptr, i32, i64, ptr, ptr, ptr, ptr, ptr, i32, i64, i64 }
%struct.lzma_stream = type { ptr, i64, i64, ptr, i64, i64, ptr, ptr, ptr, ptr, ptr, ptr, i64, i64, i64, i64, i32, i32 }
%struct.bz_stream = type { ptr, i32, i32, i32, ptr, i32, i32, i32, ptr, ptr, ptr, ptr }
%struct.IByteIn = type { ptr, ptr }
%struct.CPpmd8 = type { ptr, ptr, ptr, i32, i32, i32, i32, i32, i32, i32, i32, ptr, ptr, ptr, ptr, ptr, i32, i32, i32, i32, i32, %union.anon, [38 x i8], [128 x i8], [38 x i32], [38 x i32], [256 x i8], [260 x i8], %struct.CPpmd_See, [24 x [32 x %struct.CPpmd_See]], [25 x [64 x i16]] }
%union.anon = type { ptr }
%struct.CPpmd_See = type { i16, i8, i8 }
%struct.trad_enc_ctx = type { [3 x i32] }
%struct.archive_crypto_ctx = type { ptr, ptr, [32 x i8], i32, [16 x i8], [16 x i8], i32 }

@.str.4 = private unnamed_addr constant [10 x i8] c"compat-2x\00", align 1
@.str.5 = private unnamed_addr constant [11 x i8] c"hdrcharset\00", align 1
@.str.6 = private unnamed_addr constant [50 x i8] c"zip: hdrcharset option needs a character-set name\00", align 1
@.str.7 = private unnamed_addr constant [6 x i8] c"UTF-8\00", align 1
@.str.8 = private unnamed_addr constant [12 x i8] c"ignorecrc32\00", align 1
@.str.9 = private unnamed_addr constant [8 x i8] c"mac-ext\00", align 1

; Function Attrs: nounwind uwtable
define internal i32 @archive_read_format_zip_options(ptr noundef %0, ptr noundef %1, ptr noundef %2) #0 {
  %4 = alloca i32, align 4
  %5 = alloca ptr, align 8
  %6 = alloca ptr, align 8
  %7 = alloca ptr, align 8
  %8 = alloca ptr, align 8
  %9 = alloca i32, align 4
  %10 = alloca i32, align 4
  store ptr %0, ptr %5, align 8, !tbaa !11
  store ptr %1, ptr %6, align 8, !tbaa !45
  store ptr %2, ptr %7, align 8, !tbaa !45
  call void @llvm.lifetime.start.p0(i64 8, ptr %8) #11
  call void @llvm.lifetime.start.p0(i64 4, ptr %9) #11
  store i32 -25, ptr %9, align 4, !tbaa !9
  %11 = load ptr, ptr %5, align 8, !tbaa !11
  %12 = getelementptr inbounds nuw %struct.archive_read, ptr %11, i32 0, i32 13
  %13 = load ptr, ptr %12, align 8, !tbaa !47
  %14 = getelementptr inbounds nuw %struct.archive_format_descriptor, ptr %13, i32 0, i32 0
  %15 = load ptr, ptr %14, align 8, !tbaa !60
  store ptr %15, ptr %8, align 8, !tbaa !13
  %16 = load ptr, ptr %6, align 8, !tbaa !45
  %17 = call i32 @strcmp(ptr noundef %16, ptr noundef @.str.4) #13
  %18 = icmp eq i32 %17, 0
  br i1 %18, label %19, label %25

19:                                               ; preds = %3
  %20 = load ptr, ptr %7, align 8, !tbaa !45
  %21 = icmp ne ptr %20, null
  %22 = select i1 %21, i32 1, i32 0
  %23 = load ptr, ptr %8, align 8, !tbaa !13
  %24 = getelementptr inbounds nuw %struct.zip, ptr %23, i32 0, i32 37
  store i32 %22, ptr %24, align 8, !tbaa !62
  store i32 0, ptr %4, align 4
  store i32 1, ptr %10, align 4
  br label %113

25:                                               ; preds = %3
  %26 = load ptr, ptr %6, align 8, !tbaa !45
  %27 = call i32 @strcmp(ptr noundef %26, ptr noundef @.str.5) #13
  %28 = icmp eq i32 %27, 0
  br i1 %28, label %29, label %67

29:                                               ; preds = %25
  %30 = load ptr, ptr %7, align 8, !tbaa !45
  %31 = icmp eq ptr %30, null
  br i1 %31, label %38, label %32

32:                                               ; preds = %29
  %33 = load ptr, ptr %7, align 8, !tbaa !45
  %34 = getelementptr inbounds i8, ptr %33, i64 0
  %35 = load i8, ptr %34, align 1, !tbaa !46
  %36 = sext i8 %35 to i32
  %37 = icmp eq i32 %36, 0
  br i1 %37, label %38, label %41

38:                                               ; preds = %32, %29
  %39 = load ptr, ptr %5, align 8, !tbaa !11
  %40 = getelementptr inbounds nuw %struct.archive_read, ptr %39, i32 0, i32 0
  call void (ptr, i32, ptr, ...) @archive_set_error(ptr noundef %40, i32 noundef -1, ptr noundef @.str.6)
  br label %65

41:                                               ; preds = %32
  %42 = load ptr, ptr %5, align 8, !tbaa !11
  %43 = getelementptr inbounds nuw %struct.archive_read, ptr %42, i32 0, i32 0
  %44 = load ptr, ptr %7, align 8, !tbaa !45
  %45 = call ptr @archive_string_conversion_from_charset(ptr noundef %43, ptr noundef %44, i32 noundef 0)
  %46 = load ptr, ptr %8, align 8, !tbaa !13
  %47 = getelementptr inbounds nuw %struct.zip, ptr %46, i32 0, i32 34
  store ptr %45, ptr %47, align 8, !tbaa !63
  %48 = load ptr, ptr %8, align 8, !tbaa !13
  %49 = getelementptr inbounds nuw %struct.zip, ptr %48, i32 0, i32 34
  %50 = load ptr, ptr %49, align 8, !tbaa !63
  %51 = icmp ne ptr %50, null
  br i1 %51, label %52, label %63

52:                                               ; preds = %41
  %53 = load ptr, ptr %7, align 8, !tbaa !45
  %54 = call i32 @strcmp(ptr noundef %53, ptr noundef @.str.7) #13
  %55 = icmp eq i32 %54, 0
  br i1 %55, label %56, label %62

56:                                               ; preds = %52
  %57 = load ptr, ptr %8, align 8, !tbaa !13
  %58 = getelementptr inbounds nuw %struct.zip, ptr %57, i32 0, i32 34
  %59 = load ptr, ptr %58, align 8, !tbaa !63
  %60 = load ptr, ptr %8, align 8, !tbaa !13
  %61 = getelementptr inbounds nuw %struct.zip, ptr %60, i32 0, i32 36
  store ptr %59, ptr %61, align 8, !tbaa !64
  br label %62

62:                                               ; preds = %56, %52
  store i32 0, ptr %9, align 4, !tbaa !9
  br label %64

63:                                               ; preds = %41
  store i32 -30, ptr %9, align 4, !tbaa !9
  br label %64

64:                                               ; preds = %63, %62
  br label %65

65:                                               ; preds = %64, %38
  %66 = load i32, ptr %9, align 4, !tbaa !9
  store i32 %66, ptr %4, align 4
  store i32 1, ptr %10, align 4
  br label %113

67:                                               ; preds = %25
  %68 = load ptr, ptr %6, align 8, !tbaa !45
  %69 = call i32 @strcmp(ptr noundef %68, ptr noundef @.str.8) #13
  %70 = icmp eq i32 %69, 0
  br i1 %70, label %71, label %91

71:                                               ; preds = %67
  %72 = load ptr, ptr %7, align 8, !tbaa !45
  %73 = icmp eq ptr %72, null
  br i1 %73, label %80, label %74

74:                                               ; preds = %71
  %75 = load ptr, ptr %7, align 8, !tbaa !45
  %76 = getelementptr inbounds i8, ptr %75, i64 0
  %77 = load i8, ptr %76, align 1, !tbaa !46
  %78 = sext i8 %77 to i32
  %79 = icmp eq i32 %78, 0
  br i1 %79, label %80, label %85

80:                                               ; preds = %74, %71
  %81 = load ptr, ptr %8, align 8, !tbaa !13
  %82 = getelementptr inbounds nuw %struct.zip, ptr %81, i32 0, i32 15
  store ptr @real_crc32, ptr %82, align 8, !tbaa !42
  %83 = load ptr, ptr %8, align 8, !tbaa !13
  %84 = getelementptr inbounds nuw %struct.zip, ptr %83, i32 0, i32 16
  store i8 0, ptr %84, align 8, !tbaa !65
  br label %90

85:                                               ; preds = %74
  %86 = load ptr, ptr %8, align 8, !tbaa !13
  %87 = getelementptr inbounds nuw %struct.zip, ptr %86, i32 0, i32 15
  store ptr @fake_crc32, ptr %87, align 8, !tbaa !42
  %88 = load ptr, ptr %8, align 8, !tbaa !13
  %89 = getelementptr inbounds nuw %struct.zip, ptr %88, i32 0, i32 16
  store i8 1, ptr %89, align 8, !tbaa !65
  br label %90

90:                                               ; preds = %85, %80
  store i32 0, ptr %4, align 4
  store i32 1, ptr %10, align 4
  br label %113

91:                                               ; preds = %67
  %92 = load ptr, ptr %6, align 8, !tbaa !45
  %93 = call i32 @strcmp(ptr noundef %92, ptr noundef @.str.9) #13
  %94 = icmp eq i32 %93, 0
  br i1 %94, label %95, label %109

95:                                               ; preds = %91
  %96 = load ptr, ptr %7, align 8, !tbaa !45
  %97 = icmp ne ptr %96, null
  br i1 %97, label %98, label %104

98:                                               ; preds = %95
  %99 = load ptr, ptr %7, align 8, !tbaa !45
  %100 = getelementptr inbounds i8, ptr %99, i64 0
  %101 = load i8, ptr %100, align 1, !tbaa !46
  %102 = sext i8 %101 to i32
  %103 = icmp ne i32 %102, 0
  br label %104

104:                                              ; preds = %98, %95
  %105 = phi i1 [ false, %95 ], [ %103, %98 ]
  %106 = zext i1 %105 to i32
  %107 = load ptr, ptr %8, align 8, !tbaa !13
  %108 = getelementptr inbounds nuw %struct.zip, ptr %107, i32 0, i32 38
  store i32 %106, ptr %108, align 4, !tbaa !15
  store i32 0, ptr %4, align 4
  store i32 1, ptr %10, align 4
  br label %113

109:                                              ; preds = %91
  br label %110

110:                                              ; preds = %109
  br label %111

111:                                              ; preds = %110
  br label %112

112:                                              ; preds = %111
  store i32 -20, ptr %4, align 4
  store i32 1, ptr %10, align 4
  br label %113

113:                                              ; preds = %112, %104, %90, %65, %19
  call void @llvm.lifetime.end.p0(i64 4, ptr %9) #11
  call void @llvm.lifetime.end.p0(i64 8, ptr %8) #11
  %114 = load i32, ptr %4, align 4
  ret i32 %114
}