; Function Attrs: nounwind uwtable
define internal range(i32 -30, 1) i32 @archive_read_format_zip_options(ptr noundef %0, ptr noundef readonly captures(none) %1, ptr noundef %2) #0 {
  %4 = getelementptr inbounds nuw i8, ptr %0, i64 2072
  %5 = load ptr, ptr %4, align 8, !tbaa !37
  %6 = load ptr, ptr %5, align 8, !tbaa !50
  %7 = tail call i32 @strcmp(ptr noundef nonnull dereferenceable(1) %1, ptr noundef nonnull dereferenceable(10) @.str.4) #23
  %8 = icmp eq i32 %7, 0
  br i1 %8, label %9, label %12

9:                                                ; preds = %3
  %.not31 = icmp ne ptr %2, null
  %10 = zext i1 %.not31 to i32
  %11 = getelementptr inbounds nuw i8, ptr %6, i64 8000
  store i32 %10, ptr %11, align 8, !tbaa !52
  br label %54

12:                                               ; preds = %3
  %13 = tail call i32 @strcmp(ptr noundef nonnull dereferenceable(1) %1, ptr noundef nonnull dereferenceable(11) @.str.5) #23
  %14 = icmp eq i32 %13, 0
  br i1 %14, label %15, label %29

15:                                               ; preds = %12
  %16 = icmp eq ptr %2, null
  br i1 %16, label %20, label %17

17:                                               ; preds = %15
  %18 = load i8, ptr %2, align 1, !tbaa !36
  %19 = icmp eq i8 %18, 0
  br i1 %19, label %20, label %21

20:                                               ; preds = %17, %15
  tail call void (ptr, i32, ptr, ...) @archive_set_error(ptr noundef nonnull %0, i32 noundef -1, ptr noundef nonnull @.str.6) #21
  br label %54

21:                                               ; preds = %17
  %22 = tail call ptr @archive_string_conversion_from_charset(ptr noundef nonnull %0, ptr noundef nonnull %2, i32 noundef 0) #21
  %23 = getelementptr inbounds nuw i8, ptr %6, i64 7976
  store ptr %22, ptr %23, align 8, !tbaa !53
  %.not30 = icmp eq ptr %22, null
  br i1 %.not30, label %54, label %24

24:                                               ; preds = %21
  %25 = tail call i32 @strcmp(ptr noundef nonnull dereferenceable(1) %2, ptr noundef nonnull dereferenceable(6) @.str.7) #23
  %26 = icmp eq i32 %25, 0
  br i1 %26, label %27, label %54

27:                                               ; preds = %24
  %28 = getelementptr inbounds nuw i8, ptr %6, i64 7992
  store ptr %22, ptr %28, align 8, !tbaa !54
  br label %54

29:                                               ; preds = %12
  %30 = tail call i32 @strcmp(ptr noundef nonnull dereferenceable(1) %1, ptr noundef nonnull dereferenceable(12) @.str.8) #23
  %31 = icmp eq i32 %30, 0
  br i1 %31, label %32, label %43

32:                                               ; preds = %29
  %33 = icmp eq ptr %2, null
  br i1 %33, label %37, label %34

34:                                               ; preds = %32
  %35 = load i8, ptr %2, align 1, !tbaa !36
  %36 = icmp eq i8 %35, 0
  br i1 %36, label %37, label %40

37:                                               ; preds = %34, %32
  %38 = getelementptr inbounds nuw i8, ptr %6, i64 152
  store ptr @real_crc32, ptr %38, align 8, !tbaa !35
  %39 = getelementptr inbounds nuw i8, ptr %6, i64 160
  store i8 0, ptr %39, align 8, !tbaa !55
  br label %54

40:                                               ; preds = %34
  %41 = getelementptr inbounds nuw i8, ptr %6, i64 152
  store ptr @fake_crc32, ptr %41, align 8, !tbaa !35
  %42 = getelementptr inbounds nuw i8, ptr %6, i64 160
  store i8 1, ptr %42, align 8, !tbaa !55
  br label %54

43:                                               ; preds = %29
  %44 = tail call i32 @strcmp(ptr noundef nonnull dereferenceable(1) %1, ptr noundef nonnull dereferenceable(8) @.str.9) #23
  %45 = icmp eq i32 %44, 0
  br i1 %45, label %46, label %54

46:                                               ; preds = %43
  %.not = icmp eq ptr %2, null
  br i1 %.not, label %51, label %47

47:                                               ; preds = %46
  %48 = load i8, ptr %2, align 1, !tbaa !36
  %49 = icmp ne i8 %48, 0
  %50 = zext i1 %49 to i32
  br label %51

51:                                               ; preds = %47, %46
  %52 = phi i32 [ 0, %46 ], [ %50, %47 ]
  %53 = getelementptr inbounds nuw i8, ptr %6, i64 8004
  store i32 %52, ptr %53, align 4, !tbaa !56
  br label %54

54:                                               ; preds = %43, %37, %40, %20, %27, %24, %21, %51, %9
  %.027 = phi i32 [ 0, %9 ], [ 0, %51 ], [ -25, %20 ], [ 0, %27 ], [ 0, %24 ], [ -30, %21 ], [ 0, %40 ], [ 0, %37 ], [ -20, %43 ]
  ret i32 %.027
}